target datalayout = "e-m:e-p270:32:32-p271:32:32-p272:64:64-i64:64-i128:128-f80:128-n8:16:32:64-S128"
target triple = "x86_64-pc-linux-gnu"

%struct._object = type { %union.anon, ptr }
%union.anon = type { i64 }
%struct.seqiterobject = type { %struct._object, i64, ptr }
%struct.anon = type { i32, i32 }

@PyExc_OverflowError = external global ptr, align 8
@.str.6 = private unnamed_addr constant [21 x i8] c"iter index too large\00", align 1
@PyExc_IndexError = external global ptr, align 8
@PyExc_StopIteration = external global ptr, align 8

; Function Attrs: alwaysinline nounwind uwtable
define internal i32 @_Py_IsImmortal(ptr noundef %0) #4 {
  %2 = alloca ptr, align 8
  store ptr %0, ptr %2, align 8, !tbaa !4
  %3 = load ptr, ptr %2, align 8, !tbaa !4
  %4 = getelementptr inbounds nuw %struct._object, ptr %3, i32 0, i32 0
  %5 = getelementptr inbounds nuw %struct.anon, ptr %4, i32 0, i32 0
  %6 = load i32, ptr %5, align 8, !tbaa !112
  %7 = icmp slt i32 %6, 0
  %8 = zext i1 %7 to i32
  ret i32 %8
}

; Function Attrs: alwaysinline nounwind uwtable
define internal void @Py_DECREF(ptr noundef %0) #4 {
  %2 = alloca ptr, align 8
  store ptr %0, ptr %2, align 8, !tbaa !4
  %3 = load ptr, ptr %2, align 8, !tbaa !4
  %4 = call i32 @_Py_IsImmortal(ptr noundef %3)
  %5 = icmp ne i32 %4, 0
  br i1 %5, label %6, label %7

6:                                                ; preds = %1
  br label %16

7:                                                ; preds = %1
  %8 = load ptr, ptr %2, align 8, !tbaa !4
  %9 = getelementptr inbounds nuw %struct._object, ptr %8, i32 0, i32 0
  %10 = getelementptr inbounds nuw %struct.anon, ptr %9, i32 0, i32 0
  %11 = load i32, ptr %10, align 8, !tbaa !112
  %12 = add i32 %11, -1
  store i32 %12, ptr %10, align 8, !tbaa !112
  %13 = icmp eq i32 %12, 0
  br i1 %13, label %14, label %16

14:                                               ; preds = %7
  %15 = load ptr, ptr %2, align 8, !tbaa !4
  call void @_Py_Dealloc(ptr noundef %15)
  br label %16

16:                                               ; preds = %6, %14, %7
  ret void
}

; Function Attrs: nounwind uwtable
define internal ptr @iter_iternext(ptr noundef %0) #0 {
  %2 = alloca ptr, align 8
  %3 = alloca ptr, align 8
  %4 = alloca ptr, align 8
  %5 = alloca ptr, align 8
  %6 = alloca ptr, align 8
  %7 = alloca i32, align 4
  store ptr %0, ptr %3, align 8, !tbaa !4
  call void @llvm.lifetime.start.p0(i64 8, ptr %4) #7
  call void @llvm.lifetime.start.p0(i64 8, ptr %5) #7
  call void @llvm.lifetime.start.p0(i64 8, ptr %6) #7
  %8 = load ptr, ptr %3, align 8, !tbaa !4
  store ptr %8, ptr %4, align 8, !tbaa !9
  %9 = load ptr, ptr %4, align 8, !tbaa !9
  %10 = getelementptr inbounds nuw %struct.seqiterobject, ptr %9, i32 0, i32 2
  %11 = load ptr, ptr %10, align 8, !tbaa !15
  store ptr %11, ptr %5, align 8, !tbaa !4
  %12 = load ptr, ptr %5, align 8, !tbaa !4
  %13 = icmp eq ptr %12, null
  br i1 %13, label %14, label %15

14:                                               ; preds = %1
  store ptr null, ptr %2, align 8
  store i32 1, ptr %7, align 4
  br label %49

15:                                               ; preds = %1
  %16 = load ptr, ptr %4, align 8, !tbaa !9
  %17 = getelementptr inbounds nuw %struct.seqiterobject, ptr %16, i32 0, i32 1
  %18 = load i64, ptr %17, align 8, !tbaa !10
  %19 = icmp eq i64 %18, 9223372036854775807
  br i1 %19, label %20, label %22

20:                                               ; preds = %15
  %21 = load ptr, ptr @PyExc_OverflowError, align 8, !tbaa !4
  call void @PyErr_SetString(ptr noundef %21, ptr noundef @.str.6)
  store ptr null, ptr %2, align 8
  store i32 1, ptr %7, align 4
  br label %49

22:                                               ; preds = %15
  %23 = load ptr, ptr %5, align 8, !tbaa !4
  %24 = load ptr, ptr %4, align 8, !tbaa !9
  %25 = getelementptr inbounds nuw %struct.seqiterobject, ptr %24, i32 0, i32 1
  %26 = load i64, ptr %25, align 8, !tbaa !10
  %27 = call ptr @PySequence_GetItem(ptr noundef %23, i64 noundef %26)
  store ptr %27, ptr %6, align 8, !tbaa !4
  %28 = load ptr, ptr %6, align 8, !tbaa !4
  %29 = icmp ne ptr %28, null
  br i1 %29, label %30, label %36

30:                                               ; preds = %22
  %31 = load ptr, ptr %4, align 8, !tbaa !9
  %32 = getelementptr inbounds nuw %struct.seqiterobject, ptr %31, i32 0, i32 1
  %33 = load i64, ptr %32, align 8, !tbaa !10
  %34 = add i64 %33, 1
  store i64 %34, ptr %32, align 8, !tbaa !10
  %35 = load ptr, ptr %6, align 8, !tbaa !4
  store ptr %35, ptr %2, align 8
  store i32 1, ptr %7, align 4
  br label %49

36:                                               ; preds = %22
  %37 = load ptr, ptr @PyExc_IndexError, align 8, !tbaa !4
  %38 = call i32 @PyErr_ExceptionMatches(ptr noundef %37)
  %39 = icmp ne i32 %38, 0
  br i1 %39, label %44, label %40

40:                                               ; preds = %36
  %41 = load ptr, ptr @PyExc_StopIteration, align 8, !tbaa !4
  %42 = call i32 @PyErr_ExceptionMatches(ptr noundef %41)
  %43 = icmp ne i32 %42, 0
  br i1 %43, label %44, label %48

44:                                               ; preds = %40, %36
  call void @PyErr_Clear()
  %45 = load ptr, ptr %4, align 8, !tbaa !9
  %46 = getelementptr inbounds nuw %struct.seqiterobject, ptr %45, i32 0, i32 2
  store ptr null, ptr %46, align 8, !tbaa !15
  %47 = load ptr, ptr %5, align 8, !tbaa !4
  call void @Py_DECREF(ptr noundef %47)
  br label %48

48:                                               ; preds = %44, %40
  store ptr null, ptr %2, align 8
  store i32 1, ptr %7, align 4
  br label %49

49:                                               ; preds = %48, %30, %20, %14
  call void @llvm.lifetime.end.p0(i64 8, ptr %6) #7
  call void @llvm.lifetime.end.p0(i64 8, ptr %5) #7
  call void @llvm.lifetime.end.p0(i64 8, ptr %4) #7
  %50 = load ptr, ptr %2, align 8
  ret ptr %50
}