; Function Attrs: nounwind uwtable
define internal ptr @iter_iternext(ptr noundef captures(none) %0) #0 {
  %2 = getelementptr inbounds nuw i8, ptr %0, i64 24
  %3 = load ptr, ptr %2, align 8, !tbaa !14
  %4 = icmp eq ptr %3, null
  br i1 %4, label %Py_DECREF.exit, label %5

5:                                                ; preds = %1
  %6 = getelementptr inbounds nuw i8, ptr %0, i64 16
  %7 = load i64, ptr %6, align 8, !tbaa !4
  %8 = icmp eq i64 %7, 9223372036854775807
  br i1 %8, label %9, label %11

9:                                                ; preds = %5
  %10 = load ptr, ptr @PyExc_OverflowError, align 8, !tbaa !99
  tail call void @PyErr_SetString(ptr noundef %10, ptr noundef nonnull @.str.6) #4
  br label %Py_DECREF.exit

11:                                               ; preds = %5
  %12 = tail call ptr @PySequence_GetItem(ptr noundef nonnull %3, i64 noundef %7) #4
  %.not = icmp eq ptr %12, null
  br i1 %.not, label %16, label %13

13:                                               ; preds = %11
  %14 = load i64, ptr %6, align 8, !tbaa !4
  %15 = add i64 %14, 1
  store i64 %15, ptr %6, align 8, !tbaa !4
  br label %Py_DECREF.exit

16:                                               ; preds = %11
  %17 = load ptr, ptr @PyExc_IndexError, align 8, !tbaa !99
  %18 = tail call i32 @PyErr_ExceptionMatches(ptr noundef %17) #4
  %.not15 = icmp eq i32 %18, 0
  br i1 %.not15, label %19, label %22

19:                                               ; preds = %16
  %20 = load ptr, ptr @PyExc_StopIteration, align 8, !tbaa !99
  %21 = tail call i32 @PyErr_ExceptionMatches(ptr noundef %20) #4
  %.not16 = icmp eq i32 %21, 0
  br i1 %.not16, label %Py_DECREF.exit, label %22

22:                                               ; preds = %19, %16
  tail call void @PyErr_Clear() #4
  store ptr null, ptr %2, align 8, !tbaa !14
  %23 = load i32, ptr %3, align 8, !tbaa !13
  %.not.i = icmp sgt i32 %23, -1
  br i1 %.not.i, label %24, label %Py_DECREF.exit

24:                                               ; preds = %22
  %25 = add nsw i32 %23, -1
  store i32 %25, ptr %3, align 8, !tbaa !13
  %26 = icmp eq i32 %25, 0
  br i1 %26, label %27, label %Py_DECREF.exit

27:                                               ; preds = %24
  tail call void @_Py_Dealloc(ptr noundef nonnull %3) #4
  br label %Py_DECREF.exit

Py_DECREF.exit:                                   ; preds = %27, %24, %22, %19, %1, %13, %9
  %.0 = phi ptr [ null, %9 ], [ %12, %13 ], [ null, %1 ], [ null, %19 ], [ null, %22 ], [ null, %24 ], [ null, %27 ]
  ret ptr %.0
}